; Function Attrs: mustprogress uwtable
define hidden void @_ZN19OpenColorIO_v2_5dev16CDLTransformImpl8setSlopeEPKd(ptr noundef nonnull align 8 dereferenceable(296) %0, ptr noundef readonly %1) unnamed_addr #3 align 2 personality ptr @__gxx_personality_v0 {
  %3 = alloca %"struct.OpenColorIO_v2_5dev::CDLOpData::ChannelParams", align 8
  %.not = icmp eq ptr %1, null
  br i1 %.not, label %4, label %9

4:                                                ; preds = %2
  %5 = tail call ptr @__cxa_allocate_exception(i64 16) #26
  invoke void @_ZN19OpenColorIO_v2_5dev9ExceptionC1EPKc(ptr noundef nonnull align 8 dereferenceable(16) %5, ptr noundef nonnull @.str.9)
          to label %6 unwind label %7

6:                                                ; preds = %4
  tail call void @__cxa_throw(ptr nonnull %5, ptr nonnull @_ZTIN19OpenColorIO_v2_5dev9ExceptionE, ptr nonnull @_ZN19OpenColorIO_v2_5dev9ExceptionD1Ev) #27
  unreachable

7:                                                ; preds = %4
  %8 = landingpad { ptr, i32 }
          cleanup
  tail call void @__cxa_free_exception(ptr nonnull %5) #26
  resume { ptr, i32 } %8

9:                                                ; preds = %2
  %10 = getelementptr inbounds nuw i8, ptr %0, i64 40
  call void @llvm.lifetime.start.p0(i64 24, ptr nonnull %3) #26
  %11 = load double, ptr %1, align 8, !tbaa !82
  %12 = getelementptr inbounds nuw i8, ptr %1, i64 8
  %13 = load double, ptr %12, align 8, !tbaa !82
  %14 = getelementptr inbounds nuw i8, ptr %1, i64 16
  %15 = load double, ptr %14, align 8, !tbaa !82
  store double %11, ptr %3, align 8, !tbaa !82
  %16 = getelementptr inbounds nuw i8, ptr %3, i64 8
  store double %13, ptr %16, align 8, !tbaa !82
  %17 = getelementptr inbounds nuw i8, ptr %3, i64 16
  store double %15, ptr %17, align 8, !tbaa !82
  call void @_ZN19OpenColorIO_v2_5dev9CDLOpData14setSlopeParamsERKNS0_13ChannelParamsE(ptr noundef nonnull align 8 dereferenceable(256) %10, ptr noundef nonnull align 8 dereferenceable(24) %3)
  call void @llvm.lifetime.end.p0(i64 24, ptr nonnull %3) #26
  ret void
}